
Robot++.elf:     file format elf32-avr

Sections:
Idx Name          Size      VMA       LMA       File off  Algn
  0 .text         000003de  00000000  00000000  00000094  2**1
                  CONTENTS, ALLOC, LOAD, READONLY, CODE
  1 .data         00000006  00800060  000003de  00000472  2**0
                  CONTENTS, ALLOC, LOAD, DATA
  2 .bss          00000004  00800066  00800066  00000478  2**0
                  ALLOC
  3 .stab         00000c84  00000000  00000000  00000478  2**2
                  CONTENTS, READONLY, DEBUGGING
  4 .stabstr      000001fe  00000000  00000000  000010fc  2**0
                  CONTENTS, READONLY, DEBUGGING
  5 .comment      0000002f  00000000  00000000  000012fa  2**0
                  CONTENTS, READONLY
  6 .debug_aranges 000001b8  00000000  00000000  00001329  2**0
                  CONTENTS, READONLY, DEBUGGING
  7 .debug_info   00001357  00000000  00000000  000014e1  2**0
                  CONTENTS, READONLY, DEBUGGING
  8 .debug_abbrev 000009ec  00000000  00000000  00002838  2**0
                  CONTENTS, READONLY, DEBUGGING
  9 .debug_line   00000eaf  00000000  00000000  00003224  2**0
                  CONTENTS, READONLY, DEBUGGING
 10 .debug_frame  00000318  00000000  00000000  000040d4  2**2
                  CONTENTS, READONLY, DEBUGGING
 11 .debug_str    0000062f  00000000  00000000  000043ec  2**0
                  CONTENTS, READONLY, DEBUGGING
 12 .debug_loc    00000e50  00000000  00000000  00004a1b  2**0
                  CONTENTS, READONLY, DEBUGGING
 13 .debug_ranges 00000118  00000000  00000000  0000586b  2**0
                  CONTENTS, READONLY, DEBUGGING

Disassembly of section .text:

00000000 <__vectors>:
		}
	}
}

bool priselPrikaz()
{
   0:	12 c0       	rjmp	.+36     	; 0x26 <__ctors_end>
   2:	2c c0       	rjmp	.+88     	; 0x5c <__bad_interrupt>
   4:	2b c0       	rjmp	.+86     	; 0x5c <__bad_interrupt>
   6:	2a c0       	rjmp	.+84     	; 0x5c <__bad_interrupt>
   8:	29 c0       	rjmp	.+82     	; 0x5c <__bad_interrupt>
   a:	28 c0       	rjmp	.+80     	; 0x5c <__bad_interrupt>
   c:	27 c0       	rjmp	.+78     	; 0x5c <__bad_interrupt>
   e:	26 c0       	rjmp	.+76     	; 0x5c <__bad_interrupt>
  10:	25 c0       	rjmp	.+74     	; 0x5c <__bad_interrupt>
  12:	24 c0       	rjmp	.+72     	; 0x5c <__bad_interrupt>
	char znak = receiveChar();
  14:	23 c0       	rjmp	.+70     	; 0x5c <__bad_interrupt>
	// nepøišel žádný pøíkaz
	if (znak == -1)
	{
		return false;
	}
	else if (znak == 'z')	
  16:	22 c0       	rjmp	.+68     	; 0x5c <__bad_interrupt>
  18:	21 c0       	rjmp	.+66     	; 0x5c <__bad_interrupt>
	{
		ON(PORTB, PB0);
  1a:	20 c0       	rjmp	.+64     	; 0x5c <__bad_interrupt>
  1c:	1f c0       	rjmp	.+62     	; 0x5c <__bad_interrupt>
	}
	else if (znak == 'v')
  1e:	1e c0       	rjmp	.+60     	; 0x5c <__bad_interrupt>
  20:	1d c0       	rjmp	.+58     	; 0x5c <__bad_interrupt>
	{
		OFF(PORTB, PB0);
  22:	1c c0       	rjmp	.+56     	; 0x5c <__bad_interrupt>
  24:	1b c0       	rjmp	.+54     	; 0x5c <__bad_interrupt>

00000026 <__ctors_end>:
	}
	else if (znak == 'c')
  26:	11 24       	eor	r1, r1
  28:	1f be       	out	0x3f, r1	; 63
	{
		int cislo = 567;
		int pole[10];
		writeString(toString(cislo, pole));
  2a:	cf e5       	ldi	r28, 0x5F	; 95
  2c:	d4 e0       	ldi	r29, 0x04	; 4
  2e:	de bf       	out	0x3e, r29	; 62
  30:	cd bf       	out	0x3d, r28	; 61

00000032 <__do_copy_data>:
  32:	10 e0       	ldi	r17, 0x00	; 0
  34:	a0 e6       	ldi	r26, 0x60	; 96
  36:	b0 e0       	ldi	r27, 0x00	; 0
	}
	
	return true;
  38:	ee ed       	ldi	r30, 0xDE	; 222
  3a:	f3 e0       	ldi	r31, 0x03	; 3
  3c:	02 c0       	rjmp	.+4      	; 0x42 <__SREG__+0x3>
  3e:	05 90       	lpm	r0, Z+
  40:	0d 92       	st	X+, r0
  42:	a6 36       	cpi	r26, 0x66	; 102
  44:	b1 07       	cpc	r27, r17
  46:	d9 f7       	brne	.-10     	; 0x3e <__SP_H__>

00000048 <__do_clear_bss>:
  48:	20 e0       	ldi	r18, 0x00	; 0
  4a:	a6 e6       	ldi	r26, 0x66	; 102
  4c:	b0 e0       	ldi	r27, 0x00	; 0
  4e:	01 c0       	rjmp	.+2      	; 0x52 <.do_clear_bss_start>

00000050 <.do_clear_bss_loop>:
  50:	1d 92       	st	X+, r1

00000052 <.do_clear_bss_start>:
  52:	aa 36       	cpi	r26, 0x6A	; 106
  54:	b2 07       	cpc	r27, r18
  56:	e1 f7       	brne	.-8      	; 0x50 <.do_clear_bss_loop>
  58:	02 d0       	rcall	.+4      	; 0x5e <main>
  5a:	bf c1       	rjmp	.+894    	; 0x3da <_exit>

0000005c <__bad_interrupt>:
  5c:	d1 cf       	rjmp	.-94     	; 0x0 <__vectors>

0000005e <main>:
  5e:	27 d0       	rcall	.+78     	; 0xae <_Z10motor_initv>
  60:	37 d0       	rcall	.+110    	; 0xd0 <_Z10sonar_initv>
  62:	38 d0       	rcall	.+112    	; 0xd4 <_Z11sonary_zmerv>
  64:	ec 01       	movw	r28, r24
  66:	8a 81       	ldd	r24, Y+2	; 0x02
  68:	9b 81       	ldd	r25, Y+3	; 0x03
  6a:	8c 32       	cpi	r24, 0x2C	; 44
  6c:	91 40       	sbci	r25, 0x01	; 1
  6e:	2c f0       	brlt	.+10     	; 0x7a <main+0x1c>
  70:	8c 81       	ldd	r24, Y+4	; 0x04
  72:	9d 81       	ldd	r25, Y+5	; 0x05
  74:	8c 32       	cpi	r24, 0x2C	; 44
  76:	91 40       	sbci	r25, 0x01	; 1
  78:	1c f4       	brge	.+6      	; 0x80 <main+0x22>
  7a:	1e d0       	rcall	.+60     	; 0xb8 <_Z10levy_vpredv>
  7c:	23 d0       	rcall	.+70     	; 0xc4 <_Z10pravy_vzadv>
  7e:	02 c0       	rjmp	.+4      	; 0x84 <main+0x26>
  80:	1e d0       	rcall	.+60     	; 0xbe <_Z9levy_stopv>
  82:	23 d0       	rcall	.+70     	; 0xca <_Z10pravy_stopv>
  84:	ce 01       	movw	r24, r28
  86:	f2 d0       	rcall	.+484    	; 0x26c <free>
  88:	ec cf       	rjmp	.-40     	; 0x62 <main+0x4>

0000008a <_Z5delayj>:
  8a:	00 97       	sbiw	r24, 0x00	; 0
  8c:	51 f4       	brne	.+20     	; 0xa2 <_Z5delayj+0x18>
  8e:	08 95       	ret
  90:	21 50       	subi	r18, 0x01	; 1
  92:	31 09       	sbc	r19, r1
  94:	e9 f7       	brne	.-6      	; 0x90 <_Z5delayj+0x6>
  96:	4f 5f       	subi	r20, 0xFF	; 255
  98:	5f 4f       	sbci	r21, 0xFF	; 255
  9a:	48 17       	cp	r20, r24
  9c:	59 07       	cpc	r21, r25
  9e:	29 f4       	brne	.+10     	; 0xaa <_Z5delayj+0x20>
  a0:	08 95       	ret
  a2:	40 e0       	ldi	r20, 0x00	; 0
  a4:	50 e0       	ldi	r21, 0x00	; 0
  a6:	68 ee       	ldi	r22, 0xE8	; 232
  a8:	73 e0       	ldi	r23, 0x03	; 3
  aa:	9b 01       	movw	r18, r22
  ac:	f1 cf       	rjmp	.-30     	; 0x90 <_Z5delayj+0x6>

000000ae <_Z10motor_initv>:
  ae:	8b 9a       	sbi	0x11, 3	; 17
  b0:	8a 9a       	sbi	0x11, 2	; 17
  b2:	8c 9a       	sbi	0x11, 4	; 17
  b4:	8d 9a       	sbi	0x11, 5	; 17
  b6:	08 95       	ret

000000b8 <_Z10levy_vpredv>:
  b8:	93 9a       	sbi	0x12, 3	; 18
  ba:	92 98       	cbi	0x12, 2	; 18
  bc:	08 95       	ret

000000be <_Z9levy_stopv>:
  be:	93 98       	cbi	0x12, 3	; 18
  c0:	92 98       	cbi	0x12, 2	; 18
  c2:	08 95       	ret

000000c4 <_Z10pravy_vzadv>:
  c4:	94 98       	cbi	0x12, 4	; 18
  c6:	95 9a       	sbi	0x12, 5	; 18
  c8:	08 95       	ret

000000ca <_Z10pravy_stopv>:
  ca:	94 98       	cbi	0x12, 4	; 18
  cc:	95 98       	cbi	0x12, 5	; 18
  ce:	08 95       	ret

000000d0 <_Z10sonar_initv>:
  d0:	8f 9a       	sbi	0x11, 7	; 17
  d2:	08 95       	ret

000000d4 <_Z11sonary_zmerv>:
  d4:	97 9a       	sbi	0x12, 7	; 18
  d6:	81 e0       	ldi	r24, 0x01	; 1
  d8:	90 e0       	ldi	r25, 0x00	; 0
  da:	d7 df       	rcall	.-82     	; 0x8a <_Z5delayj>
  dc:	97 98       	cbi	0x12, 7	; 18
  de:	86 e0       	ldi	r24, 0x06	; 6
  e0:	90 e0       	ldi	r25, 0x00	; 0
  e2:	29 d0       	rcall	.+82     	; 0x136 <malloc>
  e4:	e8 2f       	mov	r30, r24
  e6:	f9 2f       	mov	r31, r25
  e8:	11 82       	std	Z+1, r1	; 0x01
  ea:	10 82       	st	Z, r1
  ec:	13 82       	std	Z+3, r1	; 0x03
  ee:	12 82       	std	Z+2, r1	; 0x02
  f0:	15 82       	std	Z+5, r1	; 0x05
  f2:	14 82       	std	Z+4, r1	; 0x04
  f4:	b0 9b       	sbis	0x16, 0	; 22
  f6:	fe cf       	rjmp	.-4      	; 0xf4 <_Z11sonary_zmerv+0x20>
  f8:	15 c0       	rjmp	.+42     	; 0x124 <_Z11sonary_zmerv+0x50>
  fa:	b0 9b       	sbis	0x16, 0	; 22
  fc:	05 c0       	rjmp	.+10     	; 0x108 <_Z11sonary_zmerv+0x34>
  fe:	80 81       	ld	r24, Z
 100:	91 81       	ldd	r25, Z+1	; 0x01
 102:	01 96       	adiw	r24, 0x01	; 1
 104:	91 83       	std	Z+1, r25	; 0x01
 106:	80 83       	st	Z, r24
 108:	b2 9b       	sbis	0x16, 2	; 22
 10a:	05 c0       	rjmp	.+10     	; 0x116 <_Z11sonary_zmerv+0x42>
 10c:	82 81       	ldd	r24, Z+2	; 0x02
 10e:	93 81       	ldd	r25, Z+3	; 0x03
 110:	01 96       	adiw	r24, 0x01	; 1
 112:	93 83       	std	Z+3, r25	; 0x03
 114:	82 83       	std	Z+2, r24	; 0x02
 116:	b1 9b       	sbis	0x16, 1	; 22
 118:	05 c0       	rjmp	.+10     	; 0x124 <_Z11sonary_zmerv+0x50>
 11a:	84 81       	ldd	r24, Z+4	; 0x04
 11c:	95 81       	ldd	r25, Z+5	; 0x05
 11e:	01 96       	adiw	r24, 0x01	; 1
 120:	95 83       	std	Z+5, r25	; 0x05
 122:	84 83       	std	Z+4, r24	; 0x04
 124:	b0 99       	sbic	0x16, 0	; 22
 126:	e9 cf       	rjmp	.-46     	; 0xfa <_Z11sonary_zmerv+0x26>
 128:	b2 99       	sbic	0x16, 2	; 22
 12a:	e7 cf       	rjmp	.-50     	; 0xfa <_Z11sonary_zmerv+0x26>
 12c:	b1 99       	sbic	0x16, 1	; 22
 12e:	e5 cf       	rjmp	.-54     	; 0xfa <_Z11sonary_zmerv+0x26>
 130:	8e 2f       	mov	r24, r30
 132:	9f 2f       	mov	r25, r31
 134:	08 95       	ret

00000136 <malloc>:
 136:	0f 93       	push	r16
 138:	1f 93       	push	r17
 13a:	cf 93       	push	r28
 13c:	df 93       	push	r29
 13e:	82 30       	cpi	r24, 0x02	; 2
 140:	91 05       	cpc	r25, r1
 142:	10 f4       	brcc	.+4      	; 0x148 <malloc+0x12>
 144:	82 e0       	ldi	r24, 0x02	; 2
 146:	90 e0       	ldi	r25, 0x00	; 0
 148:	e0 91 68 00 	lds	r30, 0x0068
 14c:	f0 91 69 00 	lds	r31, 0x0069
 150:	20 e0       	ldi	r18, 0x00	; 0
 152:	30 e0       	ldi	r19, 0x00	; 0
 154:	c0 e0       	ldi	r28, 0x00	; 0
 156:	d0 e0       	ldi	r29, 0x00	; 0
 158:	23 c0       	rjmp	.+70     	; 0x1a0 <malloc+0x6a>
 15a:	40 81       	ld	r20, Z
 15c:	51 81       	ldd	r21, Z+1	; 0x01
 15e:	48 17       	cp	r20, r24
 160:	59 07       	cpc	r21, r25
 162:	a8 f0       	brcs	.+42     	; 0x18e <malloc+0x58>
 164:	48 17       	cp	r20, r24
 166:	59 07       	cpc	r21, r25
 168:	61 f4       	brne	.+24     	; 0x182 <malloc+0x4c>
 16a:	82 81       	ldd	r24, Z+2	; 0x02
 16c:	93 81       	ldd	r25, Z+3	; 0x03
 16e:	20 97       	sbiw	r28, 0x00	; 0
 170:	19 f0       	breq	.+6      	; 0x178 <malloc+0x42>
 172:	9b 83       	std	Y+3, r25	; 0x03
 174:	8a 83       	std	Y+2, r24	; 0x02
 176:	2e c0       	rjmp	.+92     	; 0x1d4 <malloc+0x9e>
 178:	90 93 69 00 	sts	0x0069, r25
 17c:	80 93 68 00 	sts	0x0068, r24
 180:	29 c0       	rjmp	.+82     	; 0x1d4 <malloc+0x9e>
 182:	21 15       	cp	r18, r1
 184:	31 05       	cpc	r19, r1
 186:	29 f0       	breq	.+10     	; 0x192 <malloc+0x5c>
 188:	42 17       	cp	r20, r18
 18a:	53 07       	cpc	r21, r19
 18c:	10 f0       	brcs	.+4      	; 0x192 <malloc+0x5c>
 18e:	a9 01       	movw	r20, r18
 190:	02 c0       	rjmp	.+4      	; 0x196 <malloc+0x60>
 192:	be 01       	movw	r22, r28
 194:	df 01       	movw	r26, r30
 196:	02 81       	ldd	r16, Z+2	; 0x02
 198:	13 81       	ldd	r17, Z+3	; 0x03
 19a:	ef 01       	movw	r28, r30
 19c:	9a 01       	movw	r18, r20
 19e:	f8 01       	movw	r30, r16
 1a0:	30 97       	sbiw	r30, 0x00	; 0
 1a2:	d9 f6       	brne	.-74     	; 0x15a <malloc+0x24>
 1a4:	21 15       	cp	r18, r1
 1a6:	31 05       	cpc	r19, r1
 1a8:	09 f1       	breq	.+66     	; 0x1ec <malloc+0xb6>
 1aa:	28 1b       	sub	r18, r24
 1ac:	39 0b       	sbc	r19, r25
 1ae:	24 30       	cpi	r18, 0x04	; 4
 1b0:	31 05       	cpc	r19, r1
 1b2:	90 f4       	brcc	.+36     	; 0x1d8 <malloc+0xa2>
 1b4:	12 96       	adiw	r26, 0x02	; 2
 1b6:	8d 91       	ld	r24, X+
 1b8:	9c 91       	ld	r25, X
 1ba:	13 97       	sbiw	r26, 0x03	; 3
 1bc:	61 15       	cp	r22, r1
 1be:	71 05       	cpc	r23, r1
 1c0:	21 f0       	breq	.+8      	; 0x1ca <malloc+0x94>
 1c2:	fb 01       	movw	r30, r22
 1c4:	93 83       	std	Z+3, r25	; 0x03
 1c6:	82 83       	std	Z+2, r24	; 0x02
 1c8:	04 c0       	rjmp	.+8      	; 0x1d2 <malloc+0x9c>
 1ca:	90 93 69 00 	sts	0x0069, r25
 1ce:	80 93 68 00 	sts	0x0068, r24
 1d2:	fd 01       	movw	r30, r26
 1d4:	32 96       	adiw	r30, 0x02	; 2
 1d6:	44 c0       	rjmp	.+136    	; 0x260 <malloc+0x12a>
 1d8:	fd 01       	movw	r30, r26
 1da:	e2 0f       	add	r30, r18
 1dc:	f3 1f       	adc	r31, r19
 1de:	81 93       	st	Z+, r24
 1e0:	91 93       	st	Z+, r25
 1e2:	22 50       	subi	r18, 0x02	; 2
 1e4:	31 09       	sbc	r19, r1
 1e6:	2d 93       	st	X+, r18
 1e8:	3c 93       	st	X, r19
 1ea:	3a c0       	rjmp	.+116    	; 0x260 <malloc+0x12a>
 1ec:	20 91 66 00 	lds	r18, 0x0066
 1f0:	30 91 67 00 	lds	r19, 0x0067
 1f4:	23 2b       	or	r18, r19
 1f6:	41 f4       	brne	.+16     	; 0x208 <malloc+0xd2>
 1f8:	20 91 62 00 	lds	r18, 0x0062
 1fc:	30 91 63 00 	lds	r19, 0x0063
 200:	30 93 67 00 	sts	0x0067, r19
 204:	20 93 66 00 	sts	0x0066, r18
 208:	20 91 60 00 	lds	r18, 0x0060
 20c:	30 91 61 00 	lds	r19, 0x0061
 210:	21 15       	cp	r18, r1
 212:	31 05       	cpc	r19, r1
 214:	41 f4       	brne	.+16     	; 0x226 <malloc+0xf0>
 216:	2d b7       	in	r18, 0x3d	; 61
 218:	3e b7       	in	r19, 0x3e	; 62
 21a:	40 91 64 00 	lds	r20, 0x0064
 21e:	50 91 65 00 	lds	r21, 0x0065
 222:	24 1b       	sub	r18, r20
 224:	35 0b       	sbc	r19, r21
 226:	e0 91 66 00 	lds	r30, 0x0066
 22a:	f0 91 67 00 	lds	r31, 0x0067
 22e:	e2 17       	cp	r30, r18
 230:	f3 07       	cpc	r31, r19
 232:	a0 f4       	brcc	.+40     	; 0x25c <malloc+0x126>
 234:	2e 1b       	sub	r18, r30
 236:	3f 0b       	sbc	r19, r31
 238:	28 17       	cp	r18, r24
 23a:	39 07       	cpc	r19, r25
 23c:	78 f0       	brcs	.+30     	; 0x25c <malloc+0x126>
 23e:	ac 01       	movw	r20, r24
 240:	4e 5f       	subi	r20, 0xFE	; 254
 242:	5f 4f       	sbci	r21, 0xFF	; 255
 244:	24 17       	cp	r18, r20
 246:	35 07       	cpc	r19, r21
 248:	48 f0       	brcs	.+18     	; 0x25c <malloc+0x126>
 24a:	4e 0f       	add	r20, r30
 24c:	5f 1f       	adc	r21, r31
 24e:	50 93 67 00 	sts	0x0067, r21
 252:	40 93 66 00 	sts	0x0066, r20
 256:	81 93       	st	Z+, r24
 258:	91 93       	st	Z+, r25
 25a:	02 c0       	rjmp	.+4      	; 0x260 <malloc+0x12a>
 25c:	e0 e0       	ldi	r30, 0x00	; 0
 25e:	f0 e0       	ldi	r31, 0x00	; 0
 260:	cf 01       	movw	r24, r30
 262:	df 91       	pop	r29
 264:	cf 91       	pop	r28
 266:	1f 91       	pop	r17
 268:	0f 91       	pop	r16
 26a:	08 95       	ret

0000026c <free>:
 26c:	ef 92       	push	r14
 26e:	ff 92       	push	r15
 270:	0f 93       	push	r16
 272:	1f 93       	push	r17
 274:	cf 93       	push	r28
 276:	df 93       	push	r29
 278:	00 97       	sbiw	r24, 0x00	; 0
 27a:	09 f4       	brne	.+2      	; 0x27e <free+0x12>
 27c:	8f c0       	rjmp	.+286    	; 0x39c <free+0x130>
 27e:	dc 01       	movw	r26, r24
 280:	12 97       	sbiw	r26, 0x02	; 2
 282:	13 96       	adiw	r26, 0x03	; 3
 284:	1c 92       	st	X, r1
 286:	1e 92       	st	-X, r1
 288:	12 97       	sbiw	r26, 0x02	; 2
 28a:	e0 90 68 00 	lds	r14, 0x0068
 28e:	f0 90 69 00 	lds	r15, 0x0069
 292:	e1 14       	cp	r14, r1
 294:	f1 04       	cpc	r15, r1
 296:	89 f4       	brne	.+34     	; 0x2ba <free+0x4e>
 298:	2d 91       	ld	r18, X+
 29a:	3c 91       	ld	r19, X
 29c:	11 97       	sbiw	r26, 0x01	; 1
 29e:	28 0f       	add	r18, r24
 2a0:	39 1f       	adc	r19, r25
 2a2:	80 91 66 00 	lds	r24, 0x0066
 2a6:	90 91 67 00 	lds	r25, 0x0067
 2aa:	82 17       	cp	r24, r18
 2ac:	93 07       	cpc	r25, r19
 2ae:	89 f5       	brne	.+98     	; 0x312 <free+0xa6>
 2b0:	b0 93 67 00 	sts	0x0067, r27
 2b4:	a0 93 66 00 	sts	0x0066, r26
 2b8:	71 c0       	rjmp	.+226    	; 0x39c <free+0x130>
 2ba:	e7 01       	movw	r28, r14
 2bc:	20 e0       	ldi	r18, 0x00	; 0
 2be:	30 e0       	ldi	r19, 0x00	; 0
 2c0:	01 c0       	rjmp	.+2      	; 0x2c4 <free+0x58>
 2c2:	ea 01       	movw	r28, r20
 2c4:	ca 17       	cp	r28, r26
 2c6:	db 07       	cpc	r29, r27
 2c8:	38 f4       	brcc	.+14     	; 0x2d8 <free+0x6c>
 2ca:	4a 81       	ldd	r20, Y+2	; 0x02
 2cc:	5b 81       	ldd	r21, Y+3	; 0x03
 2ce:	9e 01       	movw	r18, r28
 2d0:	41 15       	cp	r20, r1
 2d2:	51 05       	cpc	r21, r1
 2d4:	b1 f7       	brne	.-20     	; 0x2c2 <free+0x56>
 2d6:	22 c0       	rjmp	.+68     	; 0x31c <free+0xb0>
 2d8:	bc 01       	movw	r22, r24
 2da:	62 50       	subi	r22, 0x02	; 2
 2dc:	71 09       	sbc	r23, r1
 2de:	fb 01       	movw	r30, r22
 2e0:	d3 83       	std	Z+3, r29	; 0x03
 2e2:	c2 83       	std	Z+2, r28	; 0x02
 2e4:	00 81       	ld	r16, Z
 2e6:	11 81       	ldd	r17, Z+1	; 0x01
 2e8:	ac 01       	movw	r20, r24
 2ea:	40 0f       	add	r20, r16
 2ec:	51 1f       	adc	r21, r17
 2ee:	4c 17       	cp	r20, r28
 2f0:	5d 07       	cpc	r21, r29
 2f2:	61 f4       	brne	.+24     	; 0x30c <free+0xa0>
 2f4:	48 81       	ld	r20, Y
 2f6:	59 81       	ldd	r21, Y+1	; 0x01
 2f8:	40 0f       	add	r20, r16
 2fa:	51 1f       	adc	r21, r17
 2fc:	4e 5f       	subi	r20, 0xFE	; 254
 2fe:	5f 4f       	sbci	r21, 0xFF	; 255
 300:	51 83       	std	Z+1, r21	; 0x01
 302:	40 83       	st	Z, r20
 304:	4a 81       	ldd	r20, Y+2	; 0x02
 306:	5b 81       	ldd	r21, Y+3	; 0x03
 308:	53 83       	std	Z+3, r21	; 0x03
 30a:	42 83       	std	Z+2, r20	; 0x02
 30c:	21 15       	cp	r18, r1
 30e:	31 05       	cpc	r19, r1
 310:	29 f4       	brne	.+10     	; 0x31c <free+0xb0>
 312:	b0 93 69 00 	sts	0x0069, r27
 316:	a0 93 68 00 	sts	0x0068, r26
 31a:	40 c0       	rjmp	.+128    	; 0x39c <free+0x130>
 31c:	f9 01       	movw	r30, r18
 31e:	b3 83       	std	Z+3, r27	; 0x03
 320:	a2 83       	std	Z+2, r26	; 0x02
 322:	e9 01       	movw	r28, r18
 324:	69 91       	ld	r22, Y+
 326:	79 91       	ld	r23, Y+
 328:	c6 0f       	add	r28, r22
 32a:	d7 1f       	adc	r29, r23
 32c:	ac 17       	cp	r26, r28
 32e:	bd 07       	cpc	r27, r29
 330:	79 f4       	brne	.+30     	; 0x350 <free+0xe4>
 332:	dc 01       	movw	r26, r24
 334:	5e 91       	ld	r21, -X
 336:	4e 91       	ld	r20, -X
 338:	46 0f       	add	r20, r22
 33a:	57 1f       	adc	r21, r23
 33c:	4e 5f       	subi	r20, 0xFE	; 254
 33e:	5f 4f       	sbci	r21, 0xFF	; 255
 340:	51 83       	std	Z+1, r21	; 0x01
 342:	40 83       	st	Z, r20
 344:	12 96       	adiw	r26, 0x02	; 2
 346:	8d 91       	ld	r24, X+
 348:	9c 91       	ld	r25, X
 34a:	13 97       	sbiw	r26, 0x03	; 3
 34c:	93 83       	std	Z+3, r25	; 0x03
 34e:	82 83       	std	Z+2, r24	; 0x02
 350:	a0 e0       	ldi	r26, 0x00	; 0
 352:	b0 e0       	ldi	r27, 0x00	; 0
 354:	02 c0       	rjmp	.+4      	; 0x35a <free+0xee>
 356:	d7 01       	movw	r26, r14
 358:	7c 01       	movw	r14, r24
 35a:	f7 01       	movw	r30, r14
 35c:	82 81       	ldd	r24, Z+2	; 0x02
 35e:	93 81       	ldd	r25, Z+3	; 0x03
 360:	00 97       	sbiw	r24, 0x00	; 0
 362:	c9 f7       	brne	.-14     	; 0x356 <free+0xea>
 364:	c7 01       	movw	r24, r14
 366:	02 96       	adiw	r24, 0x02	; 2
 368:	20 81       	ld	r18, Z
 36a:	31 81       	ldd	r19, Z+1	; 0x01
 36c:	82 0f       	add	r24, r18
 36e:	93 1f       	adc	r25, r19
 370:	20 91 66 00 	lds	r18, 0x0066
 374:	30 91 67 00 	lds	r19, 0x0067
 378:	28 17       	cp	r18, r24
 37a:	39 07       	cpc	r19, r25
 37c:	79 f4       	brne	.+30     	; 0x39c <free+0x130>
 37e:	10 97       	sbiw	r26, 0x00	; 0
 380:	29 f4       	brne	.+10     	; 0x38c <free+0x120>
 382:	10 92 69 00 	sts	0x0069, r1
 386:	10 92 68 00 	sts	0x0068, r1
 38a:	04 c0       	rjmp	.+8      	; 0x394 <free+0x128>
 38c:	13 96       	adiw	r26, 0x03	; 3
 38e:	1c 92       	st	X, r1
 390:	1e 92       	st	-X, r1
 392:	12 97       	sbiw	r26, 0x02	; 2
 394:	f0 92 67 00 	sts	0x0067, r15
 398:	e0 92 66 00 	sts	0x0066, r14
 39c:	cd b7       	in	r28, 0x3d	; 61
 39e:	de b7       	in	r29, 0x3e	; 62
 3a0:	e6 e0       	ldi	r30, 0x06	; 6
 3a2:	0c c0       	rjmp	.+24     	; 0x3bc <__epilogue_restores__+0x18>

000003a4 <__epilogue_restores__>:
 3a4:	2a 88       	ldd	r2, Y+18	; 0x12
 3a6:	39 88       	ldd	r3, Y+17	; 0x11
 3a8:	48 88       	ldd	r4, Y+16	; 0x10
 3aa:	5f 84       	ldd	r5, Y+15	; 0x0f
 3ac:	6e 84       	ldd	r6, Y+14	; 0x0e
 3ae:	7d 84       	ldd	r7, Y+13	; 0x0d
 3b0:	8c 84       	ldd	r8, Y+12	; 0x0c
 3b2:	9b 84       	ldd	r9, Y+11	; 0x0b
 3b4:	aa 84       	ldd	r10, Y+10	; 0x0a
 3b6:	b9 84       	ldd	r11, Y+9	; 0x09
 3b8:	c8 84       	ldd	r12, Y+8	; 0x08
 3ba:	df 80       	ldd	r13, Y+7	; 0x07
 3bc:	ee 80       	ldd	r14, Y+6	; 0x06
 3be:	fd 80       	ldd	r15, Y+5	; 0x05
 3c0:	0c 81       	ldd	r16, Y+4	; 0x04
 3c2:	1b 81       	ldd	r17, Y+3	; 0x03
 3c4:	aa 81       	ldd	r26, Y+2	; 0x02
 3c6:	b9 81       	ldd	r27, Y+1	; 0x01
 3c8:	ce 0f       	add	r28, r30
 3ca:	d1 1d       	adc	r29, r1
 3cc:	0f b6       	in	r0, 0x3f	; 63
 3ce:	f8 94       	cli
 3d0:	de bf       	out	0x3e, r29	; 62
 3d2:	0f be       	out	0x3f, r0	; 63
 3d4:	cd bf       	out	0x3d, r28	; 61
 3d6:	ed 01       	movw	r28, r26
 3d8:	08 95       	ret

000003da <_exit>:
 3da:	f8 94       	cli

000003dc <__stop_program>:
 3dc:	ff cf       	rjmp	.-2      	; 0x3dc <__stop_program>
